; Function Attrs: mustprogress uwtable
define hidden void @_ZN2dd11bdd_manager11mk_cofactorERKNS_3bddES3_(ptr noalias nocapture writeonly sret(%"class.dd::bdd") align 8 %agg.result, ptr noundef nonnull align 8 dereferenceable(728) %this, ptr nocapture noundef nonnull readonly align 8 dereferenceable(16) %a, ptr nocapture noundef nonnull readonly align 8 dereferenceable(16) %b) local_unnamed_addr #3 align 2 personality ptr @__gxx_personality_v0 {
entry:
  %m_bdd_stack.i = getelementptr inbounds i8, ptr %this, i64 72
  %0 = load ptr, ptr %m_bdd_stack.i, align 8
  %cmp.i.i = icmp eq ptr %0, null
  br i1 %cmp.i.i, label %_ZN2dd11bdd_manager11scoped_pushC2ERS0_.exit, label %if.end.i.i

if.end.i.i:                                       ; preds = %entry
  %arrayidx.i.i = getelementptr inbounds i8, ptr %0, i64 -4
  %1 = load i32, ptr %arrayidx.i.i, align 4
  br label %_ZN2dd11bdd_manager11scoped_pushC2ERS0_.exit

_ZN2dd11bdd_manager11scoped_pushC2ERS0_.exit:     ; preds = %entry, %if.end.i.i
  %retval.0.i.i = phi i32 [ %1, %if.end.i.i ], [ 0, %entry ]
  %m3.i = getelementptr inbounds i8, ptr %agg.result, i64 8
  %m_nodes.i.i = getelementptr inbounds i8, ptr %this, i64 8
  %m_free_nodes.i.i = getelementptr inbounds i8, ptr %this, i64 112
  br label %while.cond

while.cond:                                       ; preds = %invoke.cont5, %_ZN2dd11bdd_manager11scoped_pushC2ERS0_.exit
  %first.0 = phi i1 [ true, %_ZN2dd11bdd_manager11scoped_pushC2ERS0_.exit ], [ false, %invoke.cont5 ]
  %2 = load i32, ptr %a, align 8
  %3 = load i32, ptr %b, align 8
  %call = invoke noundef i32 @_ZN2dd11bdd_manager15mk_cofactor_recEjj(ptr noundef nonnull align 8 dereferenceable(728) %this, i32 noundef %2, i32 noundef %3)
          to label %invoke.cont unwind label %lpad

invoke.cont:                                      ; preds = %while.cond
  store i32 %call, ptr %agg.result, align 8
  store ptr %this, ptr %m3.i, align 8
  %4 = load ptr, ptr %m_nodes.i.i, align 8
  %idxprom.i.i.i = zext i32 %call to i64
  %arrayidx.i.i.i = getelementptr inbounds %"struct.dd::bdd_manager::bdd_node", ptr %4, i64 %idxprom.i.i.i
  %bf.load.i.i = load i32, ptr %arrayidx.i.i.i, align 4
  %bf.clear.i.i = and i32 %bf.load.i.i, 1023
  %cmp.not.i.i = icmp eq i32 %bf.clear.i.i, 1023
  br i1 %cmp.not.i.i, label %if.end.i.i2, label %if.then.i.i

if.then.i.i:                                      ; preds = %invoke.cont
  %inc.i.i = add i32 %bf.load.i.i, 1
  %bf.value.i.i = and i32 %inc.i.i, 1023
  %bf.clear7.i.i = and i32 %bf.load.i.i, -1024
  %bf.set.i.i = or disjoint i32 %bf.value.i.i, %bf.clear7.i.i
  store i32 %bf.set.i.i, ptr %arrayidx.i.i.i, align 4
  br label %if.end.i.i2

if.end.i.i2:                                      ; preds = %if.then.i.i, %invoke.cont
  %5 = load ptr, ptr %m_free_nodes.i.i, align 8
  %cmp.i.i.i.i.i = icmp eq ptr %5, null
  br i1 %cmp.i.i.i.i.i, label %invoke.cont3, label %_ZNK6vectorIjLb0EjE3endEv.exit.i.i.i

_ZNK6vectorIjLb0EjE3endEv.exit.i.i.i:             ; preds = %if.end.i.i2
  %arrayidx.i.i.i.i.i = getelementptr inbounds i8, ptr %5, i64 -4
  %6 = load i32, ptr %arrayidx.i.i.i.i.i, align 4
  %7 = zext i32 %6 to i64
  %add.ptr.i.i.i.i = getelementptr inbounds i32, ptr %5, i64 %7
  %cmp.not3.not.i.i.i = icmp eq i32 %6, 0
  br i1 %cmp.not3.not.i.i.i, label %invoke.cont3, label %for.body.i.i.i

for.cond.i.i.i:                                   ; preds = %for.body.i.i.i
  %incdec.ptr.i.i.i = getelementptr inbounds i8, ptr %it.04.i.i.i, i64 4
  %cmp.not.not.i.i.i = icmp eq ptr %incdec.ptr.i.i.i, %add.ptr.i.i.i.i
  br i1 %cmp.not.not.i.i.i, label %invoke.cont3, label %for.body.i.i.i, !llvm.loop !19

for.body.i.i.i:                                   ; preds = %_ZNK6vectorIjLb0EjE3endEv.exit.i.i.i, %for.cond.i.i.i
  %it.04.i.i.i = phi ptr [ %incdec.ptr.i.i.i, %for.cond.i.i.i ], [ %5, %_ZNK6vectorIjLb0EjE3endEv.exit.i.i.i ]
  %8 = load i32, ptr %it.04.i.i.i, align 4
  %cmp3.i.i.i = icmp eq i32 %8, %call
  br i1 %cmp3.i.i.i, label %if.then9.i.i, label %for.cond.i.i.i

if.then9.i.i:                                     ; preds = %for.body.i.i.i
  invoke void @_Z26notify_assertion_violationPKciS0_(ptr noundef nonnull @.str.15, i32 noundef 186, ptr noundef nonnull @.str.16)
          to label %.noexc unwind label %lpad

.noexc:                                           ; preds = %if.then9.i.i
  tail call void @exit(i32 noundef 114) #26
  unreachable

invoke.cont3:                                     ; preds = %_ZNK6vectorIjLb0EjE3endEv.exit.i.i.i, %if.end.i.i2, %for.cond.i.i.i
  %9 = load ptr, ptr %m_bdd_stack.i, align 8
  %tobool.not.i.i = icmp eq ptr %9, null
  br i1 %tobool.not.i.i, label %_ZN2dd11bdd_manager11scoped_pushD2Ev.exit, label %if.then.i.i4

if.then.i.i4:                                     ; preds = %invoke.cont3
  %arrayidx.i.i6 = getelementptr inbounds i8, ptr %9, i64 -4
  store i32 %retval.0.i.i, ptr %arrayidx.i.i6, align 4
  br label %_ZN2dd11bdd_manager11scoped_pushD2Ev.exit

_ZN2dd11bdd_manager11scoped_pushD2Ev.exit:        ; preds = %invoke.cont3, %if.then.i.i4
  ret void

lpad:                                             ; preds = %if.then9.i.i, %while.cond
  %10 = landingpad { ptr, i32 }
          cleanup
          catch ptr @_ZTIN2dd11bdd_manager7mem_outE
  %11 = extractvalue { ptr, i32 } %10, 1
  %12 = tail call i32 @llvm.eh.typeid.for(ptr nonnull @_ZTIN2dd11bdd_manager7mem_outE) #24
  %matches = icmp eq i32 %11, %12
  br i1 %matches, label %catch, label %ehcleanup

catch:                                            ; preds = %lpad
  %13 = extractvalue { ptr, i32 } %10, 0
  %14 = tail call ptr @__cxa_begin_catch(ptr %13) #24
  br i1 %first.0, label %if.end, label %if.then

if.then:                                          ; preds = %catch
  invoke void @__cxa_rethrow() #25
          to label %unreachable unwind label %lpad4.loopexit.split-lp

lpad4.loopexit:                                   ; preds = %if.end
  %lpad.loopexit = landingpad { ptr, i32 }
          cleanup
  br label %lpad4

lpad4.loopexit.split-lp:                          ; preds = %if.then
  %lpad.loopexit.split-lp = landingpad { ptr, i32 }
          cleanup
  br label %lpad4

lpad4:                                            ; preds = %lpad4.loopexit.split-lp, %lpad4.loopexit
  %lpad.phi = phi { ptr, i32 } [ %lpad.loopexit, %lpad4.loopexit ], [ %lpad.loopexit.split-lp, %lpad4.loopexit.split-lp ]
  invoke void @__cxa_end_catch()
          to label %ehcleanup unwind label %terminate.lpad

if.end:                                           ; preds = %catch
  invoke void @_ZN2dd11bdd_manager11try_reorderEv(ptr noundef nonnull align 8 dereferenceable(728) %this)
          to label %invoke.cont5 unwind label %lpad4.loopexit

invoke.cont5:                                     ; preds = %if.end
  invoke void @__cxa_end_catch()
          to label %while.cond unwind label %lpad6, !llvm.loop !46

lpad6:                                            ; preds = %invoke.cont5
  %15 = landingpad { ptr, i32 }
          cleanup
  br label %ehcleanup

ehcleanup:                                        ; preds = %lpad, %lpad4, %lpad6
  %lpad.val11.merged = phi { ptr, i32 } [ %15, %lpad6 ], [ %lpad.phi, %lpad4 ], [ %10, %lpad ]
  %16 = load ptr, ptr %m_bdd_stack.i, align 8
  %tobool.not.i.i8 = icmp eq ptr %16, null
  br i1 %tobool.not.i.i8, label %_ZN2dd11bdd_manager11scoped_pushD2Ev.exit12, label %if.then.i.i9

if.then.i.i9:                                     ; preds = %ehcleanup
  %arrayidx.i.i11 = getelementptr inbounds i8, ptr %16, i64 -4
  store i32 %retval.0.i.i, ptr %arrayidx.i.i11, align 4
  br label %_ZN2dd11bdd_manager11scoped_pushD2Ev.exit12

_ZN2dd11bdd_manager11scoped_pushD2Ev.exit12:      ; preds = %ehcleanup, %if.then.i.i9
  resume { ptr, i32 } %lpad.val11.merged

terminate.lpad:                                   ; preds = %lpad4
  %17 = landingpad { ptr, i32 }
          catch ptr null
  %18 = extractvalue { ptr, i32 } %17, 0
  tail call void @__clang_call_terminate(ptr %18) #26
  unreachable

unreachable:                                      ; preds = %if.then
  unreachable
}